target datalayout = "e-m:e-p270:32:32-p271:32:32-p272:64:64-i64:64-i128:128-f80:128-n8:16:32:64-S128"
target triple = "x86_64-pc-linux-gnu"

%struct._packet_info = type { ptr, ptr, i32, i32, %struct.nstime_t, %struct.nstime_t, %struct.nstime_t, i8, ptr, ptr, ptr, ptr, %struct._address, %struct._address, %struct._address, %struct._address, %struct._address, %struct._address, i32, ptr, i8, [3 x i8], %struct.anon.1, i32, i32, i32, i32, ptr, i8, ptr, ptr, i16, i16, i32, i32, i16, i32, i32, ptr, ptr, ptr, i8, i8, i16, i16, i16, i32, i16, i16, ptr, ptr, ptr, ptr, ptr, i32, i32 }
%struct.nstime_t = type { i64, i32 }
%struct._address = type { i32, i32, ptr, ptr }
%struct.anon.1 = type { i8, [3 x i8] }

@hf_amqp_method_exchange_declare_ticket = internal global i32 0, align 4
@hf_amqp_method_exchange_declare_exchange = internal global i32 0, align 4
@hf_amqp_method_exchange_declare_type = internal global i32 0, align 4
@hf_amqp_method_exchange_declare_passive = internal global i32 0, align 4
@hf_amqp_method_exchange_declare_durable = internal global i32 0, align 4
@hf_amqp_method_exchange_declare_auto_delete = internal global i32 0, align 4
@hf_amqp_method_exchange_declare_internal = internal global i32 0, align 4
@hf_amqp_method_exchange_declare_nowait = internal global i32 0, align 4
@hf_amqp_method_exchange_declare_arguments = internal global i32 0, align 4
@.str.1475 = private unnamed_addr constant [6 x i8] c"x=%s \00", align 1

; Function Attrs: null_pointer_is_valid sspstrong uwtable
define internal i32 @dissect_amqp_0_9_method_exchange_declare(ptr noundef %0, ptr noundef %1, i32 noundef %2, ptr noundef %3) #0 {
  %5 = alloca ptr, align 8
  %6 = alloca ptr, align 8
  %7 = alloca i32, align 4
  %8 = alloca ptr, align 8
  %9 = alloca ptr, align 8
  %10 = alloca ptr, align 8
  store ptr %0, ptr %5, align 8
  store ptr %1, ptr %6, align 8
  store i32 %2, ptr %7, align 4
  store ptr %3, ptr %8, align 8
  call void @llvm.lifetime.start.p0(i64 8, ptr %9) #11
  call void @llvm.lifetime.start.p0(i64 8, ptr %10) #11
  %11 = load ptr, ptr %8, align 8
  %12 = load i32, ptr @hf_amqp_method_exchange_declare_ticket, align 4
  %13 = load ptr, ptr %5, align 8
  %14 = load i32, ptr %7, align 4
  %15 = call ptr @proto_tree_add_item(ptr noundef %11, i32 noundef %12, ptr noundef %13, i32 noundef %14, i32 noundef 2, i32 noundef 0)
  %16 = load i32, ptr %7, align 4
  %17 = add i32 %16, 2
  store i32 %17, ptr %7, align 4
  %18 = load ptr, ptr %8, align 8
  %19 = load i32, ptr @hf_amqp_method_exchange_declare_exchange, align 4
  %20 = load ptr, ptr %5, align 8
  %21 = load i32, ptr %7, align 4
  %22 = add i32 %21, 1
  %23 = load ptr, ptr %5, align 8
  %24 = load i32, ptr %7, align 4
  %25 = call zeroext i8 @tvb_get_uint8(ptr noundef %23, i32 noundef %24)
  %26 = zext i8 %25 to i32
  %27 = load ptr, ptr %6, align 8
  %28 = getelementptr inbounds nuw %struct._packet_info, ptr %27, i32 0, i32 51
  %29 = load ptr, ptr %28, align 8
  %30 = call ptr @proto_tree_add_item_ret_string(ptr noundef %18, i32 noundef %19, ptr noundef %20, i32 noundef %22, i32 noundef %26, i32 noundef 0, ptr noundef %29, ptr noundef %10)
  %31 = load ptr, ptr %6, align 8
  %32 = getelementptr inbounds nuw %struct._packet_info, ptr %31, i32 0, i32 1
  %33 = load ptr, ptr %32, align 8
  %34 = load ptr, ptr %10, align 8
  call void (ptr, i32, ptr, ...) @col_append_fstr(ptr noundef %33, i32 noundef 25, ptr noundef @.str.1475, ptr noundef %34)
  %35 = load ptr, ptr %5, align 8
  %36 = load i32, ptr %7, align 4
  %37 = call zeroext i8 @tvb_get_uint8(ptr noundef %35, i32 noundef %36)
  %38 = zext i8 %37 to i32
  %39 = add i32 1, %38
  %40 = load i32, ptr %7, align 4
  %41 = add i32 %40, %39
  store i32 %41, ptr %7, align 4
  %42 = load ptr, ptr %8, align 8
  %43 = load i32, ptr @hf_amqp_method_exchange_declare_type, align 4
  %44 = load ptr, ptr %5, align 8
  %45 = load i32, ptr %7, align 4
  %46 = add i32 %45, 1
  %47 = load ptr, ptr %5, align 8
  %48 = load i32, ptr %7, align 4
  %49 = call zeroext i8 @tvb_get_uint8(ptr noundef %47, i32 noundef %48)
  %50 = zext i8 %49 to i32
  %51 = call ptr @proto_tree_add_item(ptr noundef %42, i32 noundef %43, ptr noundef %44, i32 noundef %46, i32 noundef %50, i32 noundef 0)
  %52 = load ptr, ptr %5, align 8
  %53 = load i32, ptr %7, align 4
  %54 = call zeroext i8 @tvb_get_uint8(ptr noundef %52, i32 noundef %53)
  %55 = zext i8 %54 to i32
  %56 = add i32 1, %55
  %57 = load i32, ptr %7, align 4
  %58 = add i32 %57, %56
  store i32 %58, ptr %7, align 4
  %59 = load ptr, ptr %8, align 8
  %60 = load i32, ptr @hf_amqp_method_exchange_declare_passive, align 4
  %61 = load ptr, ptr %5, align 8
  %62 = load i32, ptr %7, align 4
  %63 = call ptr @proto_tree_add_item(ptr noundef %59, i32 noundef %60, ptr noundef %61, i32 noundef %62, i32 noundef 1, i32 noundef 0)
  %64 = load ptr, ptr %8, align 8
  %65 = load i32, ptr @hf_amqp_method_exchange_declare_durable, align 4
  %66 = load ptr, ptr %5, align 8
  %67 = load i32, ptr %7, align 4
  %68 = call ptr @proto_tree_add_item(ptr noundef %64, i32 noundef %65, ptr noundef %66, i32 noundef %67, i32 noundef 1, i32 noundef 0)
  %69 = load ptr, ptr %8, align 8
  %70 = load i32, ptr @hf_amqp_method_exchange_declare_auto_delete, align 4
  %71 = load ptr, ptr %5, align 8
  %72 = load i32, ptr %7, align 4
  %73 = call ptr @proto_tree_add_item(ptr noundef %69, i32 noundef %70, ptr noundef %71, i32 noundef %72, i32 noundef 1, i32 noundef 0)
  %74 = load ptr, ptr %8, align 8
  %75 = load i32, ptr @hf_amqp_method_exchange_declare_internal, align 4
  %76 = load ptr, ptr %5, align 8
  %77 = load i32, ptr %7, align 4
  %78 = call ptr @proto_tree_add_item(ptr noundef %74, i32 noundef %75, ptr noundef %76, i32 noundef %77, i32 noundef 1, i32 noundef 0)
  %79 = load ptr, ptr %8, align 8
  %80 = load i32, ptr @hf_amqp_method_exchange_declare_nowait, align 4
  %81 = load ptr, ptr %5, align 8
  %82 = load i32, ptr %7, align 4
  %83 = call ptr @proto_tree_add_item(ptr noundef %79, i32 noundef %80, ptr noundef %81, i32 noundef %82, i32 noundef 1, i32 noundef 0)
  %84 = load i32, ptr %7, align 4
  %85 = add i32 %84, 1
  store i32 %85, ptr %7, align 4
  %86 = load ptr, ptr %8, align 8
  %87 = load i32, ptr @hf_amqp_method_exchange_declare_arguments, align 4
  %88 = load ptr, ptr %5, align 8
  %89 = load i32, ptr %7, align 4
  %90 = add i32 %89, 4
  %91 = load ptr, ptr %5, align 8
  %92 = load i32, ptr %7, align 4
  %93 = call i32 @tvb_get_ntohl(ptr noundef %91, i32 noundef %92)
  %94 = call ptr @proto_tree_add_item(ptr noundef %86, i32 noundef %87, ptr noundef %88, i32 noundef %90, i32 noundef %93, i32 noundef 0)
  store ptr %94, ptr %9, align 8
  %95 = load ptr, ptr %5, align 8
  %96 = load ptr, ptr %6, align 8
  %97 = load i32, ptr %7, align 4
  %98 = add i32 %97, 4
  %99 = load ptr, ptr %5, align 8
  %100 = load i32, ptr %7, align 4
  %101 = call i32 @tvb_get_ntohl(ptr noundef %99, i32 noundef %100)
  %102 = load ptr, ptr %9, align 8
  call void @dissect_amqp_0_9_field_table(ptr noundef %95, ptr noundef %96, i32 noundef %98, i32 noundef %101, ptr noundef %102)
  %103 = load ptr, ptr %5, align 8
  %104 = load i32, ptr %7, align 4
  %105 = call i32 @tvb_get_ntohl(ptr noundef %103, i32 noundef %104)
  %106 = add i32 4, %105
  %107 = load i32, ptr %7, align 4
  %108 = add i32 %107, %106
  store i32 %108, ptr %7, align 4
  %109 = load i32, ptr %7, align 4
  call void @llvm.lifetime.end.p0(i64 8, ptr %10) #11
  call void @llvm.lifetime.end.p0(i64 8, ptr %9) #11
  ret i32 %109
}