; Function Attrs: null_pointer_is_valid sspstrong uwtable
define internal fastcc void @dissect_amqp_0_9_method_exchange_declare(ptr noundef %0, ptr noundef %1, ptr noundef %2) unnamed_addr #0 {
  %4 = alloca ptr, align 8
  call void @llvm.lifetime.start.p0(i64 8, ptr nonnull %4) #14
  %5 = load i32, ptr @hf_amqp_method_exchange_declare_ticket, align 4
  %6 = tail call ptr @proto_tree_add_item(ptr noundef %2, i32 noundef %5, ptr noundef %0, i32 noundef 11, i32 noundef 2, i32 noundef 0)
  %7 = load i32, ptr @hf_amqp_method_exchange_declare_exchange, align 4
  %8 = tail call zeroext i8 @tvb_get_uint8(ptr noundef %0, i32 noundef 13)
  %9 = zext i8 %8 to i32
  %10 = getelementptr inbounds nuw i8, ptr %1, i64 408
  %11 = load ptr, ptr %10, align 8
  %12 = call ptr @proto_tree_add_item_ret_string(ptr noundef %2, i32 noundef %7, ptr noundef %0, i32 noundef 14, i32 noundef %9, i32 noundef 0, ptr noundef %11, ptr noundef nonnull %4)
  %13 = getelementptr inbounds nuw i8, ptr %1, i64 8
  %14 = load ptr, ptr %13, align 8
  %15 = load ptr, ptr %4, align 8
  call void (ptr, i32, ptr, ...) @col_append_fstr(ptr noundef %14, i32 noundef 25, ptr noundef nonnull @.str.1475, ptr noundef %15)
  %16 = call zeroext i8 @tvb_get_uint8(ptr noundef %0, i32 noundef 13)
  %17 = zext i8 %16 to i32
  %18 = add nuw nsw i32 %17, 14
  %19 = load i32, ptr @hf_amqp_method_exchange_declare_type, align 4
  %20 = add nuw nsw i32 %17, 15
  %21 = call zeroext i8 @tvb_get_uint8(ptr noundef %0, i32 noundef %18)
  %22 = zext i8 %21 to i32
  %23 = call ptr @proto_tree_add_item(ptr noundef %2, i32 noundef %19, ptr noundef %0, i32 noundef %20, i32 noundef %22, i32 noundef 0)
  %24 = call zeroext i8 @tvb_get_uint8(ptr noundef %0, i32 noundef %18)
  %25 = zext i8 %24 to i32
  %26 = add nuw nsw i32 %20, %25
  %27 = load i32, ptr @hf_amqp_method_exchange_declare_passive, align 4
  %28 = call ptr @proto_tree_add_item(ptr noundef %2, i32 noundef %27, ptr noundef %0, i32 noundef %26, i32 noundef 1, i32 noundef 0)
  %29 = load i32, ptr @hf_amqp_method_exchange_declare_durable, align 4
  %30 = call ptr @proto_tree_add_item(ptr noundef %2, i32 noundef %29, ptr noundef %0, i32 noundef %26, i32 noundef 1, i32 noundef 0)
  %31 = load i32, ptr @hf_amqp_method_exchange_declare_auto_delete, align 4
  %32 = call ptr @proto_tree_add_item(ptr noundef %2, i32 noundef %31, ptr noundef %0, i32 noundef %26, i32 noundef 1, i32 noundef 0)
  %33 = load i32, ptr @hf_amqp_method_exchange_declare_internal, align 4
  %34 = call ptr @proto_tree_add_item(ptr noundef %2, i32 noundef %33, ptr noundef %0, i32 noundef %26, i32 noundef 1, i32 noundef 0)
  %35 = load i32, ptr @hf_amqp_method_exchange_declare_nowait, align 4
  %36 = call ptr @proto_tree_add_item(ptr noundef %2, i32 noundef %35, ptr noundef %0, i32 noundef %26, i32 noundef 1, i32 noundef 0)
  %37 = add nuw nsw i32 %26, 1
  %38 = load i32, ptr @hf_amqp_method_exchange_declare_arguments, align 4
  %39 = add nuw nsw i32 %26, 5
  %40 = call i32 @tvb_get_ntohl(ptr noundef %0, i32 noundef %37)
  %41 = call ptr @proto_tree_add_item(ptr noundef %2, i32 noundef %38, ptr noundef %0, i32 noundef %39, i32 noundef %40, i32 noundef 0)
  %42 = call i32 @tvb_get_ntohl(ptr noundef %0, i32 noundef %37)
  call fastcc void @dissect_amqp_0_9_field_table(ptr noundef %0, ptr noundef %1, i32 noundef %39, i32 noundef %42, ptr noundef %41)
  %43 = call i32 @tvb_get_ntohl(ptr noundef %0, i32 noundef %37)
  call void @llvm.lifetime.end.p0(i64 8, ptr nonnull %4) #14
  ret void
}